; ModuleID = '4/1768.c'
source_filename = "4/1768.c"
target datalayout = "e-m:e-p270:32:32-p271:32:32-p272:64:64-i64:64-f80:128-n8:16:32:64-S128"
target triple = "x86_64-pc-linux-gnu"

@.str = private unnamed_addr constant [6 x i8] c"%d %d\00", align 1
@.str.1 = private unnamed_addr constant [3 x i8] c"%d\00", align 1
@.str.2 = private unnamed_addr constant [4 x i8] c"%d\0A\00", align 1

; Function Attrs: noinline nounwind uwtable
define dso_local i32 @main(i32 %0, i8** %1) #0 {
  %3 = alloca i32, align 4
  %4 = alloca i32, align 4
  %5 = alloca i8**, align 8
  %6 = alloca i32, align 4
  %7 = alloca i32, align 4
  %8 = alloca i32, align 4
  %9 = alloca i32, align 4
  %10 = alloca [100 x [100 x i32]], align 16
  store i32 0, i32* %3, align 4
  store i32 %0, i32* %4, align 4
  store i8** %1, i8*** %5, align 8
  %11 = call i32 (i8*, ...) @__isoc99_scanf(i8* getelementptr inbounds ([6 x i8], [6 x i8]* @.str, i64 0, i64 0), i32* %8, i32* %9)
  store i32 0, i32* %6, align 4
  br label %12

12:                                               ; preds = %33, %2
  %13 = load i32, i32* %6, align 4
  %14 = load i32, i32* %8, align 4
  %15 = icmp slt i32 %13, %14
  br i1 %15, label %16, label %36

16:                                               ; preds = %12
  store i32 0, i32* %7, align 4
  br label %17

17:                                               ; preds = %29, %16
  %18 = load i32, i32* %7, align 4
  %19 = load i32, i32* %9, align 4
  %20 = icmp slt i32 %18, %19
  br i1 %20, label %21, label %32

21:                                               ; preds = %17
  %22 = load i32, i32* %6, align 4
  %23 = sext i32 %22 to i64
  %24 = getelementptr inbounds [100 x [100 x i32]], [100 x [100 x i32]]* %10, i64 0, i64 %23
  %25 = load i32, i32* %7, align 4
  %26 = sext i32 %25 to i64
  %27 = getelementptr inbounds [100 x i32], [100 x i32]* %24, i64 0, i64 %26
  %28 = call i32 (i8*, ...) @__isoc99_scanf(i8* getelementptr inbounds ([3 x i8], [3 x i8]* @.str.1, i64 0, i64 0), i32* %27)
  br label %29

29:                                               ; preds = %21
  %30 = load i32, i32* %7, align 4
  %31 = add nsw i32 %30, 1
  store i32 %31, i32* %7, align 4
  br label %17

32:                                               ; preds = %17
  br label %33

33:                                               ; preds = %32
  %34 = load i32, i32* %6, align 4
  %35 = add nsw i32 %34, 1
  store i32 %35, i32* %6, align 4
  br label %12

36:                                               ; preds = %12
  %37 = load i32, i32* %8, align 4
  %38 = icmp sgt i32 %37, 1
  br i1 %38, label %39, label %123

39:                                               ; preds = %36
  %40 = load i32, i32* %9, align 4
  %41 = icmp sgt i32 %40, 1
  br i1 %41, label %42, label %123

42:                                               ; preds = %39
  store i32 0, i32* %7, align 4
  br label %43

43:                                               ; preds = %74, %42
  %44 = load i32, i32* %7, align 4
  %45 = load i32, i32* %9, align 4
  %46 = icmp slt i32 %44, %45
  br i1 %46, label %47, label %77

47:                                               ; preds = %43
  store i32 0, i32* %6, align 4
  br label %48

48:                                               ; preds = %70, %47
  %49 = load i32, i32* %6, align 4
  %50 = load i32, i32* %8, align 4
  %51 = icmp slt i32 %49, %50
  br i1 %51, label %52, label %73

52:                                               ; preds = %48
  %53 = load i32, i32* %7, align 4
  %54 = load i32, i32* %6, align 4
  %55 = sub nsw i32 %53, %54
  %56 = icmp slt i32 %55, 0
  br i1 %56, label %57, label %58

57:                                               ; preds = %52
  br label %73

58:                                               ; preds = %52
  %59 = load i32, i32* %6, align 4
  %60 = sext i32 %59 to i64
  %61 = getelementptr inbounds [100 x [100 x i32]], [100 x [100 x i32]]* %10, i64 0, i64 %60
  %62 = load i32, i32* %7, align 4
  %63 = load i32, i32* %6, align 4
  %64 = sub nsw i32 %62, %63
  %65 = sext i32 %64 to i64
  %66 = getelementptr inbounds [100 x i32], [100 x i32]* %61, i64 0, i64 %65
  %67 = load i32, i32* %66, align 4
  %68 = call i32 (i8*, ...) @printf(i8* getelementptr inbounds ([4 x i8], [4 x i8]* @.str.2, i64 0, i64 0), i32 %67)
  br label %69

69:                                               ; preds = %58
  br label %70

70:                                               ; preds = %69
  %71 = load i32, i32* %6, align 4
  %72 = add nsw i32 %71, 1
  store i32 %72, i32* %6, align 4
  br label %48

73:                                               ; preds = %57, %48
  br label %74

74:                                               ; preds = %73
  %75 = load i32, i32* %7, align 4
  %76 = add nsw i32 %75, 1
  store i32 %76, i32* %7, align 4
  br label %43

77:                                               ; preds = %43
  store i32 1, i32* %6, align 4
  br label %78

78:                                               ; preds = %119, %77
  %79 = load i32, i32* %6, align 4
  %80 = load i32, i32* %8, align 4
  %81 = sub nsw i32 %80, 1
  %82 = icmp slt i32 %79, %81
  br i1 %82, label %83, label %122

83:                                               ; preds = %78
  %84 = load i32, i32* %9, align 4
  %85 = sub nsw i32 %84, 1
  store i32 %85, i32* %7, align 4
  br label %86

86:                                               ; preds = %115, %83
  %87 = load i32, i32* %7, align 4
  %88 = icmp sge i32 %87, 0
  br i1 %88, label %89, label %118

89:                                               ; preds = %86
  %90 = load i32, i32* %6, align 4
  %91 = load i32, i32* %9, align 4
  %92 = add nsw i32 %90, %91
  %93 = sub nsw i32 %92, 1
  %94 = load i32, i32* %7, align 4
  %95 = sub nsw i32 %93, %94
  %96 = load i32, i32* %8, align 4
  %97 = sub nsw i32 %96, 1
  %98 = icmp sgt i32 %95, %97
  br i1 %98, label %99, label %100

99:                                               ; preds = %89
  br label %118

100:                                              ; preds = %89
  %101 = load i32, i32* %6, align 4
  %102 = load i32, i32* %9, align 4
  %103 = add nsw i32 %101, %102
  %104 = sub nsw i32 %103, 1
  %105 = load i32, i32* %7, align 4
  %106 = sub nsw i32 %104, %105
  %107 = sext i32 %106 to i64
  %108 = getelementptr inbounds [100 x [100 x i32]], [100 x [100 x i32]]* %10, i64 0, i64 %107
  %109 = load i32, i32* %7, align 4
  %110 = sext i32 %109 to i64
  %111 = getelementptr inbounds [100 x i32], [100 x i32]* %108, i64 0, i64 %110
  %112 = load i32, i32* %111, align 4
  %113 = call i32 (i8*, ...) @printf(i8* getelementptr inbounds ([4 x i8], [4 x i8]* @.str.2, i64 0, i64 0), i32 %112)
  br label %114

114:                                              ; preds = %100
  br label %115

115:                                              ; preds = %114
  %116 = load i32, i32* %7, align 4
  %117 = add nsw i32 %116, -1
  store i32 %117, i32* %7, align 4
  br label %86

118:                                              ; preds = %99, %86
  br label %119

119:                                              ; preds = %118
  %120 = load i32, i32* %6, align 4
  %121 = add nsw i32 %120, 1
  store i32 %121, i32* %6, align 4
  br label %78

122:                                              ; preds = %78
  br label %123

123:                                              ; preds = %122, %39, %36
  %124 = load i32, i32* %8, align 4
  %125 = icmp eq i32 %124, 1
  br i1 %125, label %126, label %146

126:                                              ; preds = %123
  %127 = load i32, i32* %9, align 4
  %128 = icmp sgt i32 %127, 1
  br i1 %128, label %129, label %146

129:                                              ; preds = %126
  store i32 0, i32* %7, align 4
  br label %130

130:                                              ; preds = %142, %129
  %131 = load i32, i32* %7, align 4
  %132 = load i32, i32* %9, align 4
  %133 = sub nsw i32 %132, 1
  %134 = icmp slt i32 %131, %133
  br i1 %134, label %135, label %145

135:                                              ; preds = %130
  %136 = getelementptr inbounds [100 x [100 x i32]], [100 x [100 x i32]]* %10, i64 0, i64 0
  %137 = load i32, i32* %7, align 4
  %138 = sext i32 %137 to i64
  %139 = getelementptr inbounds [100 x i32], [100 x i32]* %136, i64 0, i64 %138
  %140 = load i32, i32* %139, align 4
  %141 = call i32 (i8*, ...) @printf(i8* getelementptr inbounds ([4 x i8], [4 x i8]* @.str.2, i64 0, i64 0), i32 %140)
  br label %142

142:                                              ; preds = %135
  %143 = load i32, i32* %7, align 4
  %144 = add nsw i32 %143, 1
  store i32 %144, i32* %7, align 4
  br label %130

145:                                              ; preds = %130
  br label %146

146:                                              ; preds = %145, %126, %123
  %147 = load i32, i32* %9, align 4
  %148 = icmp eq i32 %147, 1
  br i1 %148, label %149, label %169

149:                                              ; preds = %146
  %150 = load i32, i32* %8, align 4
  %151 = icmp sgt i32 %150, 1
  br i1 %151, label %152, label %169

152:                                              ; preds = %149
  store i32 0, i32* %6, align 4
  br label %153

153:                                              ; preds = %165, %152
  %154 = load i32, i32* %6, align 4
  %155 = load i32, i32* %8, align 4
  %156 = sub nsw i32 %155, 1
  %157 = icmp slt i32 %154, %156
  br i1 %157, label %158, label %168

158:                                              ; preds = %153
  %159 = load i32, i32* %6, align 4
  %160 = sext i32 %159 to i64
  %161 = getelementptr inbounds [100 x [100 x i32]], [100 x [100 x i32]]* %10, i64 0, i64 %160
  %162 = getelementptr inbounds [100 x i32], [100 x i32]* %161, i64 0, i64 0
  %163 = load i32, i32* %162, align 16
  %164 = call i32 (i8*, ...) @printf(i8* getelementptr inbounds ([4 x i8], [4 x i8]* @.str.2, i64 0, i64 0), i32 %163)
  br label %165

165:                                              ; preds = %158
  %166 = load i32, i32* %6, align 4
  %167 = add nsw i32 %166, 1
  store i32 %167, i32* %6, align 4
  br label %153

168:                                              ; preds = %153
  br label %169

169:                                              ; preds = %168, %149, %146
  %170 = load i32, i32* %8, align 4
  %171 = sub nsw i32 %170, 1
  %172 = sext i32 %171 to i64
  %173 = getelementptr inbounds [100 x [100 x i32]], [100 x [100 x i32]]* %10, i64 0, i64 %172
  %174 = load i32, i32* %9, align 4
  %175 = sub nsw i32 %174, 1
  %176 = sext i32 %175 to i64
  %177 = getelementptr inbounds [100 x i32], [100 x i32]* %173, i64 0, i64 %176
  %178 = load i32, i32* %177, align 4
  %179 = call i32 (i8*, ...) @printf(i8* getelementptr inbounds ([3 x i8], [3 x i8]* @.str.1, i64 0, i64 0), i32 %178)
  ret i32 0
}

declare dso_local i32 @__isoc99_scanf(i8*, ...) #1

declare dso_local i32 @printf(i8*, ...) #1


!llvm.module.flags = !{!0}
!llvm.ident = !{!1}

!0 = !{i32 1, !"wchar_size", i32 4}
!1 = !{!"clang version 10.0.0-4ubuntu1 "}
